; Function Attrs: mustprogress uwtable
define hidden void @_ZN4cvc58internal6theory18SubsolverSetupInfoC2ERKNS0_7OptionsERKNS0_9LogicInfoENS0_8TypeNodeES9_(ptr noundef nonnull align 8 dereferenceable(32) initializes((0, 32)) %0, ptr noundef nonnull align 8 dereferenceable(408) %1, ptr noundef nonnull align 8 dereferenceable(88) %2, ptr noundef readonly captures(none) %3, ptr noundef readonly captures(none) %4) unnamed_addr #3 align 2 personality ptr @__gxx_personality_v0 {
  store ptr %1, ptr %0, align 8, !tbaa !3
  %6 = getelementptr inbounds nuw i8, ptr %0, i64 8
  store ptr %2, ptr %6, align 8, !tbaa !8
  %7 = getelementptr inbounds nuw i8, ptr %0, i64 16
  %8 = load ptr, ptr %3, align 8, !tbaa !10
  store ptr %8, ptr %7, align 8, !tbaa !10
  %9 = load i64, ptr %8, align 8
  %10 = lshr i64 %9, 40
  %11 = trunc nuw nsw i64 %10 to i32
  %12 = and i32 %11, 1048575
  %13 = icmp samesign ult i32 %12, 1048574
  br i1 %13, label %14, label %19, !prof !13

14:                                               ; preds = %5
  %15 = add i64 %9, 1099511627776
  %16 = and i64 %15, 1152920405095219200
  %17 = and i64 %9, -1152920405095219201
  %18 = or disjoint i64 %16, %17
  store i64 %18, ptr %8, align 8
  br label %_ZN4cvc58internal8TypeNodeC2ERKS1_.exit

19:                                               ; preds = %5
  %20 = icmp eq i32 %12, 1048574
  br i1 %20, label %21, label %_ZN4cvc58internal8TypeNodeC2ERKS1_.exit, !prof !14

21:                                               ; preds = %19
  %22 = or i64 %9, 1152920405095219200
  store i64 %22, ptr %8, align 8
  tail call void @_ZN4cvc58internal4expr9NodeValue20markRefCountMaxedOutEv(ptr noundef nonnull align 8 dereferenceable(24) %8)
  br label %_ZN4cvc58internal8TypeNodeC2ERKS1_.exit

_ZN4cvc58internal8TypeNodeC2ERKS1_.exit:          ; preds = %14, %19, %21
  %23 = getelementptr inbounds nuw i8, ptr %0, i64 24
  %24 = load ptr, ptr %4, align 8, !tbaa !10
  store ptr %24, ptr %23, align 8, !tbaa !10
  %25 = load i64, ptr %24, align 8
  %26 = lshr i64 %25, 40
  %27 = trunc nuw nsw i64 %26 to i32
  %28 = and i32 %27, 1048575
  %29 = icmp samesign ult i32 %28, 1048574
  br i1 %29, label %30, label %35, !prof !13

30:                                               ; preds = %_ZN4cvc58internal8TypeNodeC2ERKS1_.exit
  %31 = add i64 %25, 1099511627776
  %32 = and i64 %31, 1152920405095219200
  %33 = and i64 %25, -1152920405095219201
  %34 = or disjoint i64 %32, %33
  store i64 %34, ptr %24, align 8
  br label %_ZN4cvc58internal8TypeNodeC2ERKS1_.exit4

35:                                               ; preds = %_ZN4cvc58internal8TypeNodeC2ERKS1_.exit
  %36 = icmp eq i32 %28, 1048574
  br i1 %36, label %37, label %_ZN4cvc58internal8TypeNodeC2ERKS1_.exit4, !prof !14

37:                                               ; preds = %35
  %38 = or i64 %25, 1152920405095219200
  store i64 %38, ptr %24, align 8
  invoke void @_ZN4cvc58internal4expr9NodeValue20markRefCountMaxedOutEv(ptr noundef nonnull align 8 dereferenceable(24) %24)
          to label %_ZN4cvc58internal8TypeNodeC2ERKS1_.exit4 unwind label %39

_ZN4cvc58internal8TypeNodeC2ERKS1_.exit4:         ; preds = %35, %30, %37
  ret void

39:                                               ; preds = %37
  %40 = landingpad { ptr, i32 }
          cleanup
  tail call void @_ZN4cvc58internal8TypeNodeD2Ev(ptr noundef nonnull align 8 dereferenceable(8) %7) #20
  resume { ptr, i32 } %40
}